target datalayout = "e-m:e-p270:32:32-p271:32:32-p272:64:64-i64:64-i128:128-f80:128-n8:16:32:64-S128"
target triple = "x86_64-pc-linux-gnu"

%struct.strbuf = type { i64, i64, ptr }
%struct.__va_list_tag = type { i32, i32, ptr, ptr }

@__const.git_pathdup_submodule.buf = private unnamed_addr constant %struct.strbuf { i64 0, i64 0, ptr @strbuf_slopbuf }, align 8

; Function Attrs: nounwind uwtable
define dso_local ptr @git_pathdup_submodule(ptr noundef %0, ptr noundef %1, ...) #0 {
  %3 = alloca ptr, align 8
  %4 = alloca ptr, align 8
  %5 = alloca ptr, align 8
  %6 = alloca i32, align 4
  %7 = alloca [1 x %struct.__va_list_tag], align 16
  %8 = alloca %struct.strbuf, align 8
  %9 = alloca i32, align 4
  store ptr %0, ptr %4, align 8, !tbaa !43
  store ptr %1, ptr %5, align 8, !tbaa !43
  call void @llvm.lifetime.start.p0(i64 4, ptr %6) #12
  call void @llvm.lifetime.start.p0(i64 24, ptr %7) #12
  call void @llvm.lifetime.start.p0(i64 24, ptr %8) #12
  call void @llvm.memcpy.p0.p0.i64(ptr align 8 %8, ptr align 8 @__const.git_pathdup_submodule.buf, i64 24, i1 false)
  %10 = getelementptr inbounds [1 x %struct.__va_list_tag], ptr %7, i64 0, i64 0
  call void @llvm.va_start.p0(ptr %10)
  %11 = load ptr, ptr %4, align 8, !tbaa !43
  %12 = load ptr, ptr %5, align 8, !tbaa !43
  %13 = getelementptr inbounds [1 x %struct.__va_list_tag], ptr %7, i64 0, i64 0
  %14 = call i32 @do_submodule_path(ptr noundef %8, ptr noundef %11, ptr noundef %12, ptr noundef %13)
  store i32 %14, ptr %6, align 4, !tbaa !4
  %15 = getelementptr inbounds [1 x %struct.__va_list_tag], ptr %7, i64 0, i64 0
  call void @llvm.va_end.p0(ptr %15)
  %16 = load i32, ptr %6, align 4, !tbaa !4
  %17 = icmp ne i32 %16, 0
  br i1 %17, label %18, label %19

18:                                               ; preds = %2
  call void @strbuf_release(ptr noundef %8)
  store ptr null, ptr %3, align 8
  store i32 1, ptr %9, align 4
  br label %21

19:                                               ; preds = %2
  %20 = call ptr @strbuf_detach(ptr noundef %8, ptr noundef null)
  store ptr %20, ptr %3, align 8
  store i32 1, ptr %9, align 4
  br label %21

21:                                               ; preds = %19, %18
  call void @llvm.lifetime.end.p0(i64 24, ptr %8) #12
  call void @llvm.lifetime.end.p0(i64 24, ptr %7) #12
  call void @llvm.lifetime.end.p0(i64 4, ptr %6) #12
  %22 = load ptr, ptr %3, align 8
  ret ptr %22
}