; Function Attrs: nounwind uwtable
define dso_local ptr @git_pathdup_submodule(ptr noundef %0, ptr noundef %1, ...) local_unnamed_addr #3 {
  %3 = alloca [1 x %struct.__va_list_tag], align 16
  %4 = alloca %struct.strbuf, align 8
  call void @llvm.lifetime.start.p0(i64 24, ptr nonnull %3) #29
  call void @llvm.lifetime.start.p0(i64 24, ptr nonnull %4) #29
  call void @llvm.memcpy.p0.p0.i64(ptr noundef nonnull align 8 dereferenceable(24) %4, ptr noundef nonnull align 8 dereferenceable(24) @__const.do_submodule_path.git_submodule_dir, i64 24, i1 false)
  call void @llvm.va_start.p0(ptr nonnull %3)
  %5 = call fastcc i32 @do_submodule_path(ptr noundef nonnull %4, ptr noundef %0, ptr noundef %1, ptr noundef %3)
  call void @llvm.va_end.p0(ptr nonnull %3)
  %.not = icmp eq i32 %5, 0
  br i1 %.not, label %7, label %6

6:                                                ; preds = %2
  call void @strbuf_release(ptr noundef nonnull %4) #29
  br label %9

7:                                                ; preds = %2
  %8 = call ptr @strbuf_detach(ptr noundef nonnull %4, ptr noundef null) #29
  br label %9

9:                                                ; preds = %7, %6
  %.0 = phi ptr [ null, %6 ], [ %8, %7 ]
  call void @llvm.lifetime.end.p0(i64 24, ptr nonnull %4) #29
  call void @llvm.lifetime.end.p0(i64 24, ptr nonnull %3) #29
  ret ptr %.0
}